target datalayout = "e-m:e-p270:32:32-p271:32:32-p272:64:64-i64:64-i128:128-f80:128-n8:16:32:64-S128"
target triple = "x86_64-pc-linux-gnu"

; Function Attrs: nounwind uwtable
define internal i32 @php_htoi(ptr noundef %0) #0 {
  %2 = alloca ptr, align 8
  %3 = alloca i32, align 4
  %4 = alloca i32, align 4
  store ptr %0, ptr %2, align 8
  %5 = load ptr, ptr %2, align 8
  %6 = getelementptr inbounds i8, ptr %5, i64 0
  %7 = load i8, ptr %6, align 1
  %8 = zext i8 %7 to i32
  store i32 %8, ptr %4, align 4
  %9 = call ptr @__ctype_b_loc() #14
  %10 = load ptr, ptr %9, align 8
  %11 = load i32, ptr %4, align 4
  %12 = sext i32 %11 to i64
  %13 = getelementptr inbounds i16, ptr %10, i64 %12
  %14 = load i16, ptr %13, align 2
  %15 = zext i16 %14 to i32
  %16 = and i32 %15, 256
  %17 = icmp ne i32 %16, 0
  br i1 %17, label %18, label %21

18:                                               ; preds = %1
  %19 = load i32, ptr %4, align 4
  %20 = call i32 @tolower(i32 noundef %19) #15
  store i32 %20, ptr %4, align 4
  br label %21

21:                                               ; preds = %18, %1
  %22 = load i32, ptr %4, align 4
  %23 = icmp sge i32 %22, 48
  br i1 %23, label %24, label %30

24:                                               ; preds = %21
  %25 = load i32, ptr %4, align 4
  %26 = icmp sle i32 %25, 57
  br i1 %26, label %27, label %30

27:                                               ; preds = %24
  %28 = load i32, ptr %4, align 4
  %29 = sub nsw i32 %28, 48
  br label %34

30:                                               ; preds = %24, %21
  %31 = load i32, ptr %4, align 4
  %32 = sub nsw i32 %31, 97
  %33 = add nsw i32 %32, 10
  br label %34

34:                                               ; preds = %30, %27
  %35 = phi i32 [ %29, %27 ], [ %33, %30 ]
  %36 = mul nsw i32 %35, 16
  store i32 %36, ptr %3, align 4
  %37 = load ptr, ptr %2, align 8
  %38 = getelementptr inbounds i8, ptr %37, i64 1
  %39 = load i8, ptr %38, align 1
  %40 = zext i8 %39 to i32
  store i32 %40, ptr %4, align 4
  %41 = call ptr @__ctype_b_loc() #14
  %42 = load ptr, ptr %41, align 8
  %43 = load i32, ptr %4, align 4
  %44 = sext i32 %43 to i64
  %45 = getelementptr inbounds i16, ptr %42, i64 %44
  %46 = load i16, ptr %45, align 2
  %47 = zext i16 %46 to i32
  %48 = and i32 %47, 256
  %49 = icmp ne i32 %48, 0
  br i1 %49, label %50, label %53

50:                                               ; preds = %34
  %51 = load i32, ptr %4, align 4
  %52 = call i32 @tolower(i32 noundef %51) #15
  store i32 %52, ptr %4, align 4
  br label %53

53:                                               ; preds = %50, %34
  %54 = load i32, ptr %4, align 4
  %55 = icmp sge i32 %54, 48
  br i1 %55, label %56, label %62

56:                                               ; preds = %53
  %57 = load i32, ptr %4, align 4
  %58 = icmp sle i32 %57, 57
  br i1 %58, label %59, label %62

59:                                               ; preds = %56
  %60 = load i32, ptr %4, align 4
  %61 = sub nsw i32 %60, 48
  br label %66

62:                                               ; preds = %56, %53
  %63 = load i32, ptr %4, align 4
  %64 = sub nsw i32 %63, 97
  %65 = add nsw i32 %64, 10
  br label %66

66:                                               ; preds = %62, %59
  %67 = phi i32 [ %61, %59 ], [ %65, %62 ]
  %68 = load i32, ptr %3, align 4
  %69 = add nsw i32 %68, %67
  store i32 %69, ptr %3, align 4
  %70 = load i32, ptr %3, align 4
  ret i32 %70
}

; Function Attrs: nounwind uwtable
define i64 @php_url_decode(ptr noundef %0, i64 noundef %1) #0 {
  %3 = alloca ptr, align 8
  %4 = alloca i64, align 8
  %5 = alloca ptr, align 8
  %6 = alloca ptr, align 8
  store ptr %0, ptr %3, align 8
  store i64 %1, ptr %4, align 8
  %7 = load ptr, ptr %3, align 8
  store ptr %7, ptr %5, align 8
  %8 = load ptr, ptr %3, align 8
  store ptr %8, ptr %6, align 8
  br label %9

9:                                                ; preds = %69, %2
  %10 = load i64, ptr %4, align 8
  %11 = add i64 %10, -1
  store i64 %11, ptr %4, align 8
  %12 = icmp ne i64 %10, 0
  br i1 %12, label %13, label %74

13:                                               ; preds = %9
  %14 = load ptr, ptr %6, align 8
  %15 = load i8, ptr %14, align 1
  %16 = sext i8 %15 to i32
  %17 = icmp eq i32 %16, 43
  br i1 %17, label %18, label %20

18:                                               ; preds = %13
  %19 = load ptr, ptr %5, align 8
  store i8 32, ptr %19, align 1
  br label %69

20:                                               ; preds = %13
  %21 = load ptr, ptr %6, align 8
  %22 = load i8, ptr %21, align 1
  %23 = sext i8 %22 to i32
  %24 = icmp eq i32 %23, 37
  br i1 %24, label %25, label %64

25:                                               ; preds = %20
  %26 = load i64, ptr %4, align 8
  %27 = icmp uge i64 %26, 2
  br i1 %27, label %28, label %64

28:                                               ; preds = %25
  %29 = call ptr @__ctype_b_loc() #14
  %30 = load ptr, ptr %29, align 8
  %31 = load ptr, ptr %6, align 8
  %32 = getelementptr inbounds i8, ptr %31, i64 1
  %33 = load i8, ptr %32, align 1
  %34 = sext i8 %33 to i32
  %35 = sext i32 %34 to i64
  %36 = getelementptr inbounds i16, ptr %30, i64 %35
  %37 = load i16, ptr %36, align 2
  %38 = zext i16 %37 to i32
  %39 = and i32 %38, 4096
  %40 = icmp ne i32 %39, 0
  br i1 %40, label %41, label %64

41:                                               ; preds = %28
  %42 = call ptr @__ctype_b_loc() #14
  %43 = load ptr, ptr %42, align 8
  %44 = load ptr, ptr %6, align 8
  %45 = getelementptr inbounds i8, ptr %44, i64 2
  %46 = load i8, ptr %45, align 1
  %47 = sext i8 %46 to i32
  %48 = sext i32 %47 to i64
  %49 = getelementptr inbounds i16, ptr %43, i64 %48
  %50 = load i16, ptr %49, align 2
  %51 = zext i16 %50 to i32
  %52 = and i32 %51, 4096
  %53 = icmp ne i32 %52, 0
  br i1 %53, label %54, label %64

54:                                               ; preds = %41
  %55 = load ptr, ptr %6, align 8
  %56 = getelementptr inbounds i8, ptr %55, i64 1
  %57 = call i32 @php_htoi(ptr noundef %56)
  %58 = trunc i32 %57 to i8
  %59 = load ptr, ptr %5, align 8
  store i8 %58, ptr %59, align 1
  %60 = load ptr, ptr %6, align 8
  %61 = getelementptr inbounds i8, ptr %60, i64 2
  store ptr %61, ptr %6, align 8
  %62 = load i64, ptr %4, align 8
  %63 = sub i64 %62, 2
  store i64 %63, ptr %4, align 8
  br label %68

64:                                               ; preds = %41, %28, %25, %20
  %65 = load ptr, ptr %6, align 8
  %66 = load i8, ptr %65, align 1
  %67 = load ptr, ptr %5, align 8
  store i8 %66, ptr %67, align 1
  br label %68

68:                                               ; preds = %64, %54
  br label %69

69:                                               ; preds = %68, %18
  %70 = load ptr, ptr %6, align 8
  %71 = getelementptr inbounds i8, ptr %70, i32 1
  store ptr %71, ptr %6, align 8
  %72 = load ptr, ptr %5, align 8
  %73 = getelementptr inbounds i8, ptr %72, i32 1
  store ptr %73, ptr %5, align 8
  br label %9

74:                                               ; preds = %9
  %75 = load ptr, ptr %5, align 8
  store i8 0, ptr %75, align 1
  %76 = load ptr, ptr %5, align 8
  %77 = load ptr, ptr %3, align 8
  %78 = ptrtoint ptr %76 to i64
  %79 = ptrtoint ptr %77 to i64
  %80 = sub i64 %78, %79
  ret i64 %80
}