; Function Attrs: nofree nounwind memory(readwrite, inaccessiblemem: read) uwtable
define noundef i64 @php_url_decode(ptr noundef %0, i64 noundef %1) local_unnamed_addr #11 {
  %.not27 = icmp eq i64 %1, 0
  br i1 %.not27, label %._crit_edge, label %.lr.ph

.lr.ph:                                           ; preds = %2, %53
  %.030 = phi ptr [ %54, %53 ], [ %0, %2 ]
  %.02029 = phi ptr [ %55, %53 ], [ %0, %2 ]
  %.02128 = phi i64 [ %.122, %53 ], [ %1, %2 ]
  %3 = add i64 %.02128, -1
  %4 = load i8, ptr %.030, align 1
  %5 = icmp eq i8 %4, 43
  br i1 %5, label %6, label %7

6:                                                ; preds = %.lr.ph
  store i8 32, ptr %.02029, align 1
  br label %53

7:                                                ; preds = %.lr.ph
  %8 = icmp eq i8 %4, 37
  %9 = icmp ugt i64 %3, 1
  %or.cond = and i1 %9, %8
  br i1 %or.cond, label %10, label %52

10:                                               ; preds = %7
  %11 = tail call ptr @__ctype_b_loc() #17
  %12 = load ptr, ptr %11, align 8
  %13 = getelementptr inbounds i8, ptr %.030, i64 1
  %14 = load i8, ptr %13, align 1
  %15 = sext i8 %14 to i64
  %16 = getelementptr inbounds i16, ptr %12, i64 %15
  %17 = load i16, ptr %16, align 2
  %18 = and i16 %17, 4096
  %.not25 = icmp eq i16 %18, 0
  br i1 %.not25, label %52, label %19

19:                                               ; preds = %10
  %20 = getelementptr inbounds i8, ptr %.030, i64 2
  %21 = load i8, ptr %20, align 1
  %22 = sext i8 %21 to i64
  %23 = getelementptr inbounds i16, ptr %12, i64 %22
  %24 = load i16, ptr %23, align 2
  %25 = and i16 %24, 4096
  %.not26 = icmp eq i16 %25, 0
  br i1 %.not26, label %52, label %26

26:                                               ; preds = %19
  %27 = zext i8 %14 to i32
  %28 = zext i8 %14 to i64
  %29 = getelementptr inbounds i16, ptr %12, i64 %28
  %30 = load i16, ptr %29, align 2
  %31 = and i16 %30, 256
  %.not.i = icmp eq i16 %31, 0
  br i1 %.not.i, label %34, label %32

32:                                               ; preds = %26
  %33 = tail call i32 @tolower(i32 noundef %27) #18
  br label %34

34:                                               ; preds = %32, %26
  %.0.i = phi i32 [ %33, %32 ], [ %27, %26 ]
  %35 = zext i8 %21 to i32
  %36 = zext i8 %21 to i64
  %37 = getelementptr inbounds i16, ptr %12, i64 %36
  %38 = load i16, ptr %37, align 2
  %39 = and i16 %38, 256
  %.not18.i = icmp eq i16 %39, 0
  br i1 %.not18.i, label %php_htoi.exit, label %40

40:                                               ; preds = %34
  %41 = tail call i32 @tolower(i32 noundef %35) #18
  br label %php_htoi.exit

php_htoi.exit:                                    ; preds = %34, %40
  %.1.i = phi i32 [ %41, %40 ], [ %35, %34 ]
  %42 = add i32 %.0.i, -48
  %or.cond.i = icmp ult i32 %42, 10
  %43 = add nsw i32 %.0.i, -87
  %44 = select i1 %or.cond.i, i32 %42, i32 %43
  %45 = add i32 %.1.i, -48
  %or.cond3.i = icmp ult i32 %45, 10
  %46 = add i32 %.1.i, 169
  %47 = select i1 %or.cond3.i, i32 %45, i32 %46
  %48 = shl nsw i32 %44, 4
  %49 = add i32 %47, %48
  %50 = trunc i32 %49 to i8
  store i8 %50, ptr %.02029, align 1
  %51 = add i64 %.02128, -3
  br label %53

52:                                               ; preds = %19, %10, %7
  store i8 %4, ptr %.02029, align 1
  br label %53

53:                                               ; preds = %php_htoi.exit, %52, %6
  %.122 = phi i64 [ %3, %6 ], [ %51, %php_htoi.exit ], [ %3, %52 ]
  %.1 = phi ptr [ %.030, %6 ], [ %20, %php_htoi.exit ], [ %.030, %52 ]
  %54 = getelementptr inbounds i8, ptr %.1, i64 1
  %55 = getelementptr inbounds i8, ptr %.02029, i64 1
  %.not = icmp eq i64 %.122, 0
  br i1 %.not, label %._crit_edge, label %.lr.ph

._crit_edge:                                      ; preds = %53, %2
  %.020.lcssa = phi ptr [ %0, %2 ], [ %55, %53 ]
  store i8 0, ptr %.020.lcssa, align 1
  %56 = ptrtoint ptr %.020.lcssa to i64
  %57 = ptrtoint ptr %0 to i64
  %58 = sub i64 %56, %57
  ret i64 %58
}